; Function Attrs: mustprogress uwtable
define internal noundef ptr @"_ZNSt17_Function_handlerIFP6tacticR11ast_managerRK10params_refEZ17mk_default_tacticS3_S6_E4$_12E9_M_invokeERKSt9_Any_dataS3_S6_"(ptr nonnull readnone align 8 captures(none) %0, ptr noundef nonnull align 8 dereferenceable(976) %1, ptr nonnull readnone align 8 captures(none) %2) #3 align 2 personality ptr @__gxx_personality_v0 {
  %4 = alloca %class.params_ref, align 8
  call void @llvm.lifetime.start.p0(i64 8, ptr nonnull %4) #10
  store ptr null, ptr %4, align 8, !tbaa !3
  %5 = invoke noundef ptr @_Z13mk_smt_tacticR11ast_managerRK10params_ref(ptr noundef nonnull align 8 dereferenceable(976) %1, ptr noundef nonnull align 8 dereferenceable(8) %4)
          to label %"_ZSt10__invoke_rIP6tacticRZ17mk_default_tacticR11ast_managerRK10params_refE4$_12JS3_S6_EENSt9enable_ifIX16is_invocable_r_vIT_T0_DpT1_EESA_E4typeEOSB_DpOSC_.exit" unwind label %6

6:                                                ; preds = %3
  %7 = landingpad { ptr, i32 }
          cleanup
  call void @_ZN10params_refD1Ev(ptr noundef nonnull align 8 dereferenceable(8) %4) #10
  call void @llvm.lifetime.end.p0(i64 8, ptr nonnull %4) #10
  resume { ptr, i32 } %7

"_ZSt10__invoke_rIP6tacticRZ17mk_default_tacticR11ast_managerRK10params_refE4$_12JS3_S6_EENSt9enable_ifIX16is_invocable_r_vIT_T0_DpT1_EESA_E4typeEOSB_DpOSC_.exit": ; preds = %3
  call void @_ZN10params_refD1Ev(ptr noundef nonnull align 8 dereferenceable(8) %4) #10
  call void @llvm.lifetime.end.p0(i64 8, ptr nonnull %4) #10
  ret ptr %5
}